target datalayout = "e-m:e-p270:32:32-p271:32:32-p272:64:64-i64:64-i128:128-f80:128-n8:16:32:64-S128"
target triple = "x86_64-pc-linux-gnu"

%struct.AVPacket = type { ptr, i64, i64, ptr, i32, i32, i32, ptr, i32, i64, i64, ptr, ptr, %struct.AVRational }
%struct.AVRational = type { i32, i32 }
%struct.AVStream = type { ptr, i32, i32, ptr, ptr, %struct.AVRational, i64, i64, i64, i32, i32, %struct.AVRational, ptr, %struct.AVRational, %struct.AVPacket, i32, %struct.AVRational, i32 }
%struct.AVCodecParameters = type { i32, i32, i32, ptr, i32, ptr, i32, i32, i64, i32, i32, i32, i32, i32, i32, %struct.AVRational, %struct.AVRational, i32, i32, i32, i32, i32, i32, i32, %struct.AVChannelLayout, i32, i32, i32, i32, i32, i32 }
%struct.AVChannelLayout = type { i32, i32, %union.anon.0, ptr }
%union.anon.0 = type { i64 }

@.str.106 = private unnamed_addr constant [17 x i8] c"h264_mp4toannexb\00", align 1

; Function Attrs: alwaysinline nounwind willreturn memory(none) uwtable
define internal i32 @av_bswap32(i32 noundef %0) #5 {
  %2 = alloca i32, align 4
  store i32 %0, ptr %2, align 4, !tbaa !57
  %3 = load i32, ptr %2, align 4, !tbaa !57
  %4 = shl i32 %3, 8
  %5 = and i32 %4, 65280
  %6 = load i32, ptr %2, align 4, !tbaa !57
  %7 = lshr i32 %6, 8
  %8 = and i32 %7, 255
  %9 = or i32 %5, %8
  %10 = shl i32 %9, 16
  %11 = load i32, ptr %2, align 4, !tbaa !57
  %12 = lshr i32 %11, 16
  %13 = shl i32 %12, 8
  %14 = and i32 %13, 65280
  %15 = load i32, ptr %2, align 4, !tbaa !57
  %16 = lshr i32 %15, 16
  %17 = lshr i32 %16, 8
  %18 = and i32 %17, 255
  %19 = or i32 %14, %18
  %20 = or i32 %10, %19
  ret i32 %20
}

; Function Attrs: nounwind uwtable
define internal i32 @mxf_check_bitstream(ptr noundef %0, ptr noundef %1, ptr noundef %2) #0 {
  %4 = alloca i32, align 4
  %5 = alloca ptr, align 8
  %6 = alloca ptr, align 8
  %7 = alloca ptr, align 8
  store ptr %0, ptr %5, align 8, !tbaa !4
  store ptr %1, ptr %6, align 8, !tbaa !38
  store ptr %2, ptr %7, align 8, !tbaa !9
  %8 = load ptr, ptr %6, align 8, !tbaa !38
  %9 = getelementptr inbounds nuw %struct.AVStream, ptr %8, i32 0, i32 3
  %10 = load ptr, ptr %9, align 8, !tbaa !58
  %11 = getelementptr inbounds nuw %struct.AVCodecParameters, ptr %10, i32 0, i32 1
  %12 = load i32, ptr %11, align 4, !tbaa !59
  %13 = icmp eq i32 %12, 27
  br i1 %13, label %14, label %54

14:                                               ; preds = %3
  %15 = load ptr, ptr %7, align 8, !tbaa !9
  %16 = getelementptr inbounds nuw %struct.AVPacket, ptr %15, i32 0, i32 4
  %17 = load i32, ptr %16, align 8, !tbaa !62
  %18 = icmp sge i32 %17, 5
  br i1 %18, label %19, label %53

19:                                               ; preds = %14
  %20 = load ptr, ptr %7, align 8, !tbaa !9
  %21 = getelementptr inbounds nuw %struct.AVPacket, ptr %20, i32 0, i32 3
  %22 = load ptr, ptr %21, align 8, !tbaa !73
  %23 = load i32, ptr %22, align 1, !tbaa !132
  %24 = call i32 @av_bswap32(i32 noundef %23) #14
  %25 = icmp ne i32 %24, 1
  br i1 %25, label %26, label %53

26:                                               ; preds = %19
  %27 = load ptr, ptr %7, align 8, !tbaa !9
  %28 = getelementptr inbounds nuw %struct.AVPacket, ptr %27, i32 0, i32 3
  %29 = load ptr, ptr %28, align 8, !tbaa !73
  %30 = getelementptr inbounds i8, ptr %29, i64 0
  %31 = load i8, ptr %30, align 1, !tbaa !132
  %32 = zext i8 %31 to i32
  %33 = shl i32 %32, 16
  %34 = load ptr, ptr %7, align 8, !tbaa !9
  %35 = getelementptr inbounds nuw %struct.AVPacket, ptr %34, i32 0, i32 3
  %36 = load ptr, ptr %35, align 8, !tbaa !73
  %37 = getelementptr inbounds i8, ptr %36, i64 1
  %38 = load i8, ptr %37, align 1, !tbaa !132
  %39 = zext i8 %38 to i32
  %40 = shl i32 %39, 8
  %41 = or i32 %33, %40
  %42 = load ptr, ptr %7, align 8, !tbaa !9
  %43 = getelementptr inbounds nuw %struct.AVPacket, ptr %42, i32 0, i32 3
  %44 = load ptr, ptr %43, align 8, !tbaa !73
  %45 = getelementptr inbounds i8, ptr %44, i64 2
  %46 = load i8, ptr %45, align 1, !tbaa !132
  %47 = zext i8 %46 to i32
  %48 = or i32 %41, %47
  %49 = icmp ne i32 %48, 1
  br i1 %49, label %50, label %53

50:                                               ; preds = %26
  %51 = load ptr, ptr %6, align 8, !tbaa !38
  %52 = call i32 @ff_stream_add_bitstream_filter(ptr noundef %51, ptr noundef @.str.106, ptr noundef null)
  store i32 %52, ptr %4, align 4
  br label %55

53:                                               ; preds = %26, %19, %14
  br label %54

54:                                               ; preds = %53, %3
  store i32 1, ptr %4, align 4
  br label %55

55:                                               ; preds = %54, %50
  %56 = load i32, ptr %4, align 4
  ret i32 %56
}