; Function Attrs: nounwind uwtable
define internal i32 @mxf_check_bitstream(ptr readnone captures(none) %0, ptr noundef %1, ptr noundef readonly captures(none) %2) #0 {
  %4 = getelementptr inbounds nuw i8, ptr %1, i64 16
  %5 = load ptr, ptr %4, align 8, !tbaa !48
  %6 = getelementptr inbounds nuw i8, ptr %5, i64 4
  %7 = load i32, ptr %6, align 4, !tbaa !49
  %8 = icmp eq i32 %7, 27
  br i1 %8, label %9, label %27

9:                                                ; preds = %3
  %10 = getelementptr inbounds nuw i8, ptr %2, i64 32
  %11 = load i32, ptr %10, align 8, !tbaa !52
  %12 = icmp sgt i32 %11, 4
  br i1 %12, label %13, label %27

13:                                               ; preds = %9
  %14 = getelementptr inbounds nuw i8, ptr %2, i64 24
  %15 = load ptr, ptr %14, align 8, !tbaa !53
  %16 = load i32, ptr %15, align 1
  %.not = icmp eq i32 %16, 16777216
  br i1 %.not, label %27, label %17

17:                                               ; preds = %13
  %18 = lshr i32 %16, 16
  %19 = shl i32 %16, 16
  %20 = and i32 %19, 16711680
  %21 = and i32 %16, 65280
  %22 = or disjoint i32 %21, %20
  %23 = and i32 %18, 255
  %24 = or disjoint i32 %22, %23
  %.not7 = icmp eq i32 %24, 1
  br i1 %.not7, label %27, label %25

25:                                               ; preds = %17
  %26 = tail call i32 @ff_stream_add_bitstream_filter(ptr noundef nonnull %1, ptr noundef nonnull @.str.106, ptr noundef null) #14
  br label %27

27:                                               ; preds = %3, %17, %13, %9, %25
  %.0 = phi i32 [ %26, %25 ], [ 1, %9 ], [ 1, %13 ], [ 1, %17 ], [ 1, %3 ]
  ret i32 %.0
}